target datalayout = "e-m:e-p270:32:32-p271:32:32-p272:64:64-i64:64-i128:128-f80:128-n8:16:32:64-S128"
target triple = "x86_64-unknown-linux-gnu"

%"class.v8::IndirectHandleBase" = type { ptr }
%"class.std::unique_ptr.2" = type { %"struct.std::__uniq_ptr_data.3" }
%"struct.std::__uniq_ptr_data.3" = type { %"class.std::__uniq_ptr_impl.4" }
%"class.std::__uniq_ptr_impl.4" = type { %"class.std::tuple.5" }
%"class.std::tuple.5" = type { %"struct.std::_Tuple_impl.6" }
%"struct.std::_Tuple_impl.6" = type { %"struct.std::_Head_base.9" }
%"struct.std::_Head_base.9" = type { ptr }
%"class.node::crypto::TLSWrap" = type <{ %"class.node::AsyncWrap", %"class.node::StreamBase", %"class.node::StreamListener", ptr, i32, [4 x i8], %"class.std::unique_ptr", %"class.std::unique_ptr.2", %"class.node::crypto::ClientHelloParser", %"class.v8::Global.10", %"class.node::BaseObjectPtrImpl", %"class.node::BaseObjectPtrImpl", ptr, ptr, %"class.std::unique_ptr.12", i64, %"class.node::BaseObjectPtrImpl.20", %"class.node::BaseObjectPtrImpl.20", %"class.std::__cxx11::basic_string", i8, i8, i8, i8, i8, i8, i8, i8, i8, [3 x i8], i32, ptr, ptr, %"class.std::unique_ptr.23", i8, [7 x i8], %"class.std::vector", i8, [7 x i8] }>
%"class.node::AsyncWrap" = type { %"class.node::BaseObject", i32, i8, double, double }
%"class.node::BaseObject" = type { %"class.node::MemoryRetainer", %"class.v8::Global", ptr, ptr }
%"class.node::MemoryRetainer" = type { ptr }
%"class.v8::Global" = type { %"class.v8::PersistentBase" }
%"class.v8::PersistentBase" = type { %"class.v8::IndirectHandleBase" }
%"class.node::StreamBase" = type { %"class.node::StreamResource", ptr, %"class.node::EmitToJSStreamListener" }
%"class.node::StreamResource" = type { ptr, ptr, i64, i64 }
%"class.node::EmitToJSStreamListener" = type { %"class.node::ReportWritesToJSStreamListener" }
%"class.node::ReportWritesToJSStreamListener" = type { %"class.node::StreamListener" }
%"class.node::StreamListener" = type { ptr, ptr, ptr }
%"class.std::unique_ptr" = type { %"struct.std::__uniq_ptr_data" }
%"struct.std::__uniq_ptr_data" = type { %"class.std::__uniq_ptr_impl" }
%"class.std::__uniq_ptr_impl" = type { %"class.std::tuple" }
%"class.std::tuple" = type { %"struct.std::_Tuple_impl" }
%"struct.std::_Tuple_impl" = type { %"struct.std::_Head_base.1" }
%"struct.std::_Head_base.1" = type { ptr }
%"class.node::crypto::ClientHelloParser" = type { i32, ptr, ptr, ptr, i64, i64, i64, i8, ptr, i16, ptr, i16, ptr }
%"class.v8::Global.10" = type { %"class.v8::PersistentBase.11" }
%"class.v8::PersistentBase.11" = type { %"class.v8::IndirectHandleBase" }
%"class.node::BaseObjectPtrImpl" = type { %union.anon }
%union.anon = type { ptr }
%"class.std::unique_ptr.12" = type { %"struct.std::__uniq_ptr_data.13" }
%"struct.std::__uniq_ptr_data.13" = type { %"class.std::__uniq_ptr_impl.14" }
%"class.std::__uniq_ptr_impl.14" = type { %"class.std::tuple.15" }
%"class.std::tuple.15" = type { %"struct.std::_Tuple_impl.16" }
%"struct.std::_Tuple_impl.16" = type { %"struct.std::_Head_base.19" }
%"struct.std::_Head_base.19" = type { ptr }
%"class.node::BaseObjectPtrImpl.20" = type { %union.anon.21 }
%union.anon.21 = type { ptr }
%"class.std::__cxx11::basic_string" = type { %"struct.std::__cxx11::basic_string<char>::_Alloc_hider", i64, %union.anon.22 }
%"struct.std::__cxx11::basic_string<char>::_Alloc_hider" = type { ptr }
%union.anon.22 = type { i64, [8 x i8] }
%"class.std::unique_ptr.23" = type { %"struct.std::__uniq_ptr_data.24" }
%"struct.std::__uniq_ptr_data.24" = type { %"class.std::__uniq_ptr_impl.25" }
%"class.std::__uniq_ptr_impl.25" = type { %"class.std::tuple.26" }
%"class.std::tuple.26" = type { %"struct.std::_Tuple_impl.27" }
%"struct.std::_Tuple_impl.27" = type { %"struct.std::_Head_base.30" }
%"struct.std::_Head_base.30" = type { ptr }
%"class.std::vector" = type { %"struct.std::_Vector_base" }
%"struct.std::_Vector_base" = type { %"struct.std::_Vector_base<unsigned char, std::allocator<unsigned char>>::_Vector_impl" }
%"struct.std::_Vector_base<unsigned char, std::allocator<unsigned char>>::_Vector_impl" = type { %"struct.std::_Vector_base<unsigned char, std::allocator<unsigned char>>::_Vector_impl_data" }
%"struct.std::_Vector_base<unsigned char, std::allocator<unsigned char>>::_Vector_impl_data" = type { ptr, ptr, ptr }

; Function Attrs: mustprogress nounwind uwtable
define dso_local noundef ptr @_ZNK4node6crypto7TLSWrap5ErrorEv(ptr noundef nonnull align 8 dereferenceable(457) %this) unnamed_addr #4 align 2 {
entry:
  %this.addr = alloca ptr, align 8
  store ptr %this, ptr %this.addr, align 8
  %this1 = load ptr, ptr %this.addr, align 8
  %error_ = getelementptr inbounds %"class.node::crypto::TLSWrap", ptr %this1, i32 0, i32 18
  %call = call noundef zeroext i1 @_ZNKSt7__cxx1112basic_stringIcSt11char_traitsIcESaIcEE5emptyEv(ptr noundef nonnull align 8 dereferenceable(32) %error_) #3
  br i1 %call, label %cond.true, label %cond.false

cond.true:                                        ; preds = %entry
  br label %cond.end

cond.false:                                       ; preds = %entry
  %error_2 = getelementptr inbounds %"class.node::crypto::TLSWrap", ptr %this1, i32 0, i32 18
  %call3 = call noundef ptr @_ZNKSt7__cxx1112basic_stringIcSt11char_traitsIcESaIcEE5c_strEv(ptr noundef nonnull align 8 dereferenceable(32) %error_2) #3
  br label %cond.end

cond.end:                                         ; preds = %cond.false, %cond.true
  %cond = phi ptr [ null, %cond.true ], [ %call3, %cond.false ]
  ret ptr %cond
}