; Function Attrs: mustprogress nounwind uwtable
define dso_local noundef ptr @_ZNK4node6crypto7TLSWrap5ErrorEv(ptr noundef nonnull align 8 dereferenceable(457) %this) unnamed_addr #3 align 2 {
entry:
  %error_ = getelementptr inbounds i8, ptr %this, i64 352
  %call = tail call noundef zeroext i1 @_ZNKSt7__cxx1112basic_stringIcSt11char_traitsIcESaIcEE5emptyEv(ptr noundef nonnull align 8 dereferenceable(32) %error_) #23
  br i1 %call, label %cond.end, label %cond.false

cond.false:                                       ; preds = %entry
  %call3 = tail call noundef ptr @_ZNKSt7__cxx1112basic_stringIcSt11char_traitsIcESaIcEE5c_strEv(ptr noundef nonnull align 8 dereferenceable(32) %error_) #23
  br label %cond.end

cond.end:                                         ; preds = %entry, %cond.false
  %cond = phi ptr [ %call3, %cond.false ], [ null, %entry ]
  ret ptr %cond
}